; Function Attrs: mustprogress nofree norecurse nosync nounwind willreturn memory(argmem: readwrite) uwtable
define void @wolfSSL_KeepArrays(ptr noundef captures(address_is_null) %0) local_unnamed_addr #4 {
  %.not = icmp eq ptr %0, null
  br i1 %.not, label %6, label %2

2:                                                ; preds = %1
  %3 = getelementptr inbounds nuw i8, ptr %0, i64 1024
  %4 = load i64, ptr %3, align 8
  %5 = or i64 %4, 274877906944
  store i64 %5, ptr %3, align 8
  br label %6

6:                                                ; preds = %2, %1
  ret void
}